; Function Attrs: mustprogress noreturn uwtable
define internal fastcc void @_ZN12_GLOBAL__N_122throwUnimplementedImplEPKc(ptr noundef %name) unnamed_addr #5 personality ptr @__gxx_personality_v0 {
entry:
  %agg.tmp.i = alloca %"class.std::__cxx11::basic_string", align 8
  %agg.tmp = alloca %"class.std::__cxx11::basic_string", align 8
  %ref.tmp = alloca %"class.std::__cxx11::basic_string", align 8
  %ref.tmp1 = alloca %"class.std::allocator", align 1
  %exception = tail call ptr @__cxa_allocate_exception(i64 40) #11
  call void @_ZNSaIcEC1Ev(ptr noundef nonnull align 1 dereferenceable(1) %ref.tmp1) #11
  %call.i3 = invoke noundef ptr @_ZNSt7__cxx1112basic_stringIcSt11char_traitsIcESaIcEE13_M_local_dataEv(ptr noundef nonnull align 8 dereferenceable(32) %ref.tmp)
          to label %call.i.noexc unwind label %lpad

call.i.noexc:                                     ; preds = %entry
  invoke void @_ZNSt7__cxx1112basic_stringIcSt11char_traitsIcESaIcEE12_Alloc_hiderC1EPcRKS3_(ptr noundef nonnull align 8 dereferenceable(8) %ref.tmp, ptr noundef %call.i3, ptr noundef nonnull align 1 dereferenceable(1) %ref.tmp1)
          to label %.noexc unwind label %lpad

.noexc:                                           ; preds = %call.i.noexc
  invoke void @_ZNSt7__cxx1112basic_stringIcSt11char_traitsIcESaIcEE12_M_constructIPKcEEvT_S8_St20forward_iterator_tag(ptr noundef nonnull align 8 dereferenceable(32) %ref.tmp, ptr noundef nonnull @.str, ptr noundef nonnull getelementptr inbounds ([24 x i8], ptr @.str, i64 0, i64 23))
          to label %invoke.cont unwind label %lpad.i

lpad.i:                                           ; preds = %.noexc
  %0 = landingpad { ptr, i32 }
          cleanup
  call void @_ZNSaIcED2Ev(ptr noundef nonnull align 1 dereferenceable(1) %ref.tmp) #11
  br label %ehcleanup6.thread

invoke.cont:                                      ; preds = %.noexc
  %call.i5 = invoke noundef nonnull align 8 dereferenceable(32) ptr @_ZNSt7__cxx1112basic_stringIcSt11char_traitsIcESaIcEE6appendEPKc(ptr noundef nonnull align 8 dereferenceable(32) %ref.tmp, ptr noundef %name)
          to label %invoke.cont5 unwind label %lpad2

invoke.cont5:                                     ; preds = %invoke.cont
  call void @_ZNSt7__cxx1112basic_stringIcSt11char_traitsIcESaIcEEC1EOS4_(ptr noundef nonnull align 8 dereferenceable(32) %agg.tmp, ptr noundef nonnull align 8 dereferenceable(32) %call.i5) #11
  call void @llvm.lifetime.start.p0(i64 32, ptr nonnull %agg.tmp.i)
  call void @_ZNSt7__cxx1112basic_stringIcSt11char_traitsIcESaIcEEC1EOS4_(ptr noundef nonnull align 8 dereferenceable(32) %agg.tmp.i, ptr noundef nonnull align 8 dereferenceable(32) %agg.tmp) #11
  store ptr getelementptr inbounds ({ [5 x ptr] }, ptr @_ZTVN8facebook3jsi12JSIExceptionE, i64 0, i32 0, i64 2), ptr %exception, align 8
  %what_.i.i = getelementptr inbounds i8, ptr %exception, i64 8
  call void @_ZNSt7__cxx1112basic_stringIcSt11char_traitsIcESaIcEEC1EOS4_(ptr noundef nonnull align 8 dereferenceable(32) %what_.i.i, ptr noundef nonnull align 8 dereferenceable(32) %agg.tmp.i) #11
  call void @_ZNSt7__cxx1112basic_stringIcSt11char_traitsIcESaIcEED1Ev(ptr noundef nonnull align 8 dereferenceable(32) %agg.tmp.i) #11
  store ptr getelementptr inbounds ({ [5 x ptr] }, ptr @_ZTVN8facebook3jsi18JSINativeExceptionE, i64 0, i32 0, i64 2), ptr %exception, align 8
  call void @llvm.lifetime.end.p0(i64 32, ptr nonnull %agg.tmp.i)
  invoke void @__cxa_throw(ptr nonnull %exception, ptr nonnull @_ZTIN8facebook3jsi18JSINativeExceptionE, ptr nonnull @_ZN8facebook3jsi18JSINativeExceptionD1Ev) #14
          to label %unreachable unwind label %lpad4

lpad:                                             ; preds = %call.i.noexc, %entry
  %1 = landingpad { ptr, i32 }
          cleanup
  br label %ehcleanup6.thread

lpad2:                                            ; preds = %invoke.cont
  %2 = landingpad { ptr, i32 }
          cleanup
  br label %ehcleanup6

lpad4:                                            ; preds = %invoke.cont5
  %3 = landingpad { ptr, i32 }
          cleanup
  call void @_ZNSt7__cxx1112basic_stringIcSt11char_traitsIcESaIcEED1Ev(ptr noundef nonnull align 8 dereferenceable(32) %agg.tmp) #11
  br label %ehcleanup6

ehcleanup6.thread:                                ; preds = %lpad.i, %lpad
  %.pn.pn.ph = phi { ptr, i32 } [ %0, %lpad.i ], [ %1, %lpad ]
  call void @_ZNSaIcED1Ev(ptr noundef nonnull align 1 dereferenceable(1) %ref.tmp1) #11
  br label %cleanup.action

ehcleanup6:                                       ; preds = %lpad2, %lpad4
  %.pn = phi { ptr, i32 } [ %3, %lpad4 ], [ %2, %lpad2 ]
  %cleanup.isactive.1 = phi i1 [ false, %lpad4 ], [ true, %lpad2 ]
  call void @_ZNSt7__cxx1112basic_stringIcSt11char_traitsIcESaIcEED1Ev(ptr noundef nonnull align 8 dereferenceable(32) %ref.tmp) #11
  call void @_ZNSaIcED1Ev(ptr noundef nonnull align 1 dereferenceable(1) %ref.tmp1) #11
  br i1 %cleanup.isactive.1, label %cleanup.action, label %eh.resume

cleanup.action:                                   ; preds = %ehcleanup6.thread, %ehcleanup6
  %.pn.pn9 = phi { ptr, i32 } [ %.pn.pn.ph, %ehcleanup6.thread ], [ %.pn, %ehcleanup6 ]
  call void @__cxa_free_exception(ptr %exception) #11
  br label %eh.resume

eh.resume:                                        ; preds = %ehcleanup6, %cleanup.action
  %.pn.pn8 = phi { ptr, i32 } [ %.pn, %ehcleanup6 ], [ %.pn.pn9, %cleanup.action ]
  resume { ptr, i32 } %.pn.pn8

unreachable:                                      ; preds = %invoke.cont5
  unreachable
}